target datalayout = "e-m:e-p270:32:32-p271:32:32-p272:64:64-i64:64-i128:128-f80:128-n8:16:32:64-S128"
target triple = "x86_64-pc-linux-gnu"

%struct.Pdr_Obl_t_ = type { i32, i32, i32, ptr, ptr, ptr }
%struct.Pdr_Man_t_ = type { ptr, ptr, ptr, ptr, ptr, ptr, ptr, ptr, %struct.Vec_Ptr_t_, ptr, i32, i32, ptr, ptr, ptr, ptr, ptr, ptr, i32, i32, ptr, ptr, ptr, i32, i32, ptr, ptr, ptr, ptr, ptr, ptr, ptr, ptr, ptr, ptr, ptr, ptr, ptr, ptr, i32, i32, i32, i32, i32, i32, i32, i32, i32, i32, i32, i32, i32, i32, i32, i32, i32, i64, i64, i64, i64, i64, i64, i64, i64, i64, i64, i64, i64 }
%struct.Vec_Ptr_t_ = type { i32, i32, ptr }

; Function Attrs: nounwind uwtable
define ptr @Pdr_QueuePop(ptr noundef %0) #0 {
  %2 = alloca ptr, align 8
  %3 = alloca ptr, align 8
  %4 = alloca ptr, align 8
  store ptr %0, ptr %3, align 8
  %5 = load ptr, ptr %3, align 8
  %6 = getelementptr inbounds %struct.Pdr_Man_t_, ptr %5, i32 0, i32 15
  %7 = load ptr, ptr %6, align 8
  store ptr %7, ptr %4, align 8
  %8 = load ptr, ptr %3, align 8
  %9 = getelementptr inbounds %struct.Pdr_Man_t_, ptr %8, i32 0, i32 15
  %10 = load ptr, ptr %9, align 8
  %11 = icmp eq ptr %10, null
  br i1 %11, label %12, label %13

12:                                               ; preds = %1
  store ptr null, ptr %2, align 8
  br label %27

13:                                               ; preds = %1
  %14 = load ptr, ptr %3, align 8
  %15 = getelementptr inbounds %struct.Pdr_Man_t_, ptr %14, i32 0, i32 15
  %16 = load ptr, ptr %15, align 8
  %17 = getelementptr inbounds %struct.Pdr_Obl_t_, ptr %16, i32 0, i32 5
  %18 = load ptr, ptr %17, align 8
  %19 = load ptr, ptr %3, align 8
  %20 = getelementptr inbounds %struct.Pdr_Man_t_, ptr %19, i32 0, i32 15
  store ptr %18, ptr %20, align 8
  %21 = load ptr, ptr %4, align 8
  call void @Pdr_OblDeref(ptr noundef %21)
  %22 = load ptr, ptr %3, align 8
  %23 = getelementptr inbounds %struct.Pdr_Man_t_, ptr %22, i32 0, i32 51
  %24 = load i32, ptr %23, align 8
  %25 = add nsw i32 %24, -1
  store i32 %25, ptr %23, align 8
  %26 = load ptr, ptr %4, align 8
  store ptr %26, ptr %2, align 8
  br label %27

27:                                               ; preds = %13, %12
  %28 = load ptr, ptr %2, align 8
  ret ptr %28
}

; Function Attrs: nounwind uwtable
define i32 @Pdr_QueueIsEmpty(ptr noundef %0) #0 {
  %2 = alloca ptr, align 8
  store ptr %0, ptr %2, align 8
  %3 = load ptr, ptr %2, align 8
  %4 = getelementptr inbounds %struct.Pdr_Man_t_, ptr %3, i32 0, i32 15
  %5 = load ptr, ptr %4, align 8
  %6 = icmp eq ptr %5, null
  %7 = zext i1 %6 to i32
  ret i32 %7
}

; Function Attrs: nounwind uwtable
define void @Pdr_QueueStop(ptr noundef %0) #0 {
  %2 = alloca ptr, align 8
  %3 = alloca ptr, align 8
  store ptr %0, ptr %2, align 8
  br label %4

4:                                                ; preds = %9, %1
  %5 = load ptr, ptr %2, align 8
  %6 = call i32 @Pdr_QueueIsEmpty(ptr noundef %5)
  %7 = icmp ne i32 %6, 0
  %8 = xor i1 %7, true
  br i1 %8, label %9, label %13

9:                                                ; preds = %4
  %10 = load ptr, ptr %2, align 8
  %11 = call ptr @Pdr_QueuePop(ptr noundef %10)
  store ptr %11, ptr %3, align 8
  %12 = load ptr, ptr %3, align 8
  call void @Pdr_OblDeref(ptr noundef %12)
  br label %4, !llvm.loop !29

13:                                               ; preds = %4
  %14 = load ptr, ptr %2, align 8
  %15 = getelementptr inbounds %struct.Pdr_Man_t_, ptr %14, i32 0, i32 15
  store ptr null, ptr %15, align 8
  %16 = load ptr, ptr %2, align 8
  %17 = getelementptr inbounds %struct.Pdr_Man_t_, ptr %16, i32 0, i32 51
  store i32 0, ptr %17, align 8
  ret void
}