; Function Attrs: nounwind uwtable
define void @Pdr_QueueStop(ptr noundef captures(none) %0) local_unnamed_addr #9 {
  %2 = getelementptr inbounds nuw i8, ptr %0, i64 120
  %3 = load ptr, ptr %2, align 8
  %.not5 = icmp eq ptr %3, null
  br i1 %.not5, label %._crit_edge, label %Pdr_QueuePop.exit.lr.ph

Pdr_QueuePop.exit.lr.ph:                          ; preds = %1
  %4 = getelementptr inbounds nuw i8, ptr %0, i64 344
  br label %Pdr_QueuePop.exit

Pdr_QueuePop.exit:                                ; preds = %Pdr_QueuePop.exit.lr.ph, %Pdr_QueuePop.exit
  %5 = phi ptr [ %3, %Pdr_QueuePop.exit.lr.ph ], [ %10, %Pdr_QueuePop.exit ]
  %6 = getelementptr inbounds nuw i8, ptr %5, i64 32
  %7 = load ptr, ptr %6, align 8
  store ptr %7, ptr %2, align 8
  tail call void @Pdr_OblDeref(ptr noundef nonnull %5)
  %8 = load i32, ptr %4, align 8
  %9 = add nsw i32 %8, -1
  store i32 %9, ptr %4, align 8
  tail call void @Pdr_OblDeref(ptr noundef nonnull %5)
  %10 = load ptr, ptr %2, align 8
  %.not = icmp eq ptr %10, null
  br i1 %.not, label %._crit_edge, label %Pdr_QueuePop.exit, !llvm.loop !25

._crit_edge:                                      ; preds = %Pdr_QueuePop.exit, %1
  store ptr null, ptr %2, align 8
  %11 = getelementptr inbounds nuw i8, ptr %0, i64 344
  store i32 0, ptr %11, align 8
  ret void
}